; Function Attrs: mustprogress nofree norecurse nosync nounwind willreturn memory(argmem: read, inaccessiblemem: write) uwtable
define dso_local noundef zeroext i1 @_ZN4llvm6object28doesXCOFFTracebackTableBeginENS_8ArrayRefIhEE(ptr %0, i64 %1) local_unnamed_addr #13 {
  %3 = icmp ult i64 %1, 4
  br i1 %3, label %6, label %4

4:                                                ; preds = %2
  call void @llvm.assume(i1 true) [ "align"(ptr %0, i64 1) ]
  %.0.copyload.i.i.i.i.i.i = load i32, ptr %0, align 1
  %5 = icmp eq i32 %.0.copyload.i.i.i.i.i.i, 0
  br label %6

6:                                                ; preds = %2, %4
  %.0 = phi i1 [ %5, %4 ], [ false, %2 ]
  ret i1 %.0
}